(lp0
VAAPL
p1
aVCPST
p2
aVFCEL
p3
aVMSFT
p4
aVQUIK
p5
aVNVDA
p6
aVNFLX
p7
aVOSTK
p8
aVPLUG
p9
aVAMZN
p10
aVINTC
p11
aVCRNT
p12
aVINWK
p13
aVMELI
p14
aVCSCO
p15
aVZIXI
p16
aVNKTR
p17
aVBBBY
p18
aVVICL
p19
aVCRZO
p20
aVSYMC
p21
aVSIRI
p22
aVGPRO
p23
aVIGLD
p24
aVPSEC
p25
aVLOGI
p26
aVSBUX
p27
aVMMM
p28
aVABT
p29
aVABBV
p30
aVABMD
p31
aVACN
p32
aVATVI
p33
aVADBE
p34
aVAMD
p35
aVAAP
p36
aVAES
p37
aVAMG
p38
aVAFL
p39
aVA
p40
aVAPD
p41
aVAKAM
p42
aVALK
p43
aVALB
p44
aVARE
p45
aVALXN
p46
aVALGN
p47
aVALLE
p48
aVAGN
p49
aVADS
p50
aVLNT
p51
aVALL
p52
aVGOOGL
p53
aVGOOG
p54
aVMO
p55
aVAMZN
p56
aVAMCR
p57
aVAEE
p58
aVAAL
p59
aVAEP
p60
aVAXP
p61
aVAIG
p62
aVAMT
p63
aVAWK
p64
aVAMP
p65
aVABC
p66
aVAME
p67
aVAMGN
p68
aVAPH
p69
aVAPC
p70
aVADI
p71
aVANSS
p72
aVANTM
p73
aVAON
p74
aVAOS
p75
aVAPA
p76
aVAIV
p77
aVAAPL
p78
aVAMAT
p79
aVAPTV
p80
aVADM
p81
aVARNC
p82
aVANET
p83
aVAJG
p84
aVAIZ
p85
aVATO
p86
aVT
p87
aVADSK
p88
aVADP
p89
aVAZO
p90
aVAVB
p91
aVAVY
p92
aVBHGE
p93
aVBLL
p94
aVBAC
p95
aVBK
p96
aVBAX
p97
aVBBT
p98
aVBDX
p99
aVBRK-B
p100
aVBBY
p101
aVBIIB
p102
aVBLK
p103
aVHRB
p104
aVBA
p105
aVBKNG
p106
aVBWA
p107
aVBXP
p108
aVBSX
p109
aVBMY
p110
aVAVGO
p111
aVBR
p112
aVBF-B
p113
aVCHRW
p114
aVCOG
p115
aVCDNS
p116
aVCPB
p117
aVCOF
p118
aVCPRI
p119
aVCAH
p120
aVKMX
p121
aVCCL
p122
aVCAT
p123
aVCBOE
p124
aVCBRE
p125
aVCBS
p126
aVCE
p127
aVCELG
p128
aVCNC
p129
aVCNP
p130
aVCTL
p131
aVCERN
p132
aVCF
p133
aVSCHW
p134
aVCHTR
p135
aVCVX
p136
aVCMG
p137
aVCB
p138
aVCHD
p139
aVCI
p140
aVXEC
p141
aVCINF
p142
aVCTAS
p143
aVCSCO
p144
aVC
p145
aVCFG
p146
aVCTXS
p147
aVCLX
p148
aVCME
p149
aVCMS
p150
aVKO
p151
aVCTSH
p152
aVCL
p153
aVCMCSA
p154
aVCMA
p155
aVCAG
p156
aVCXO
p157
aVCOP
p158
aVED
p159
aVSTZ
p160
aVCOO
p161
aVCPRT
p162
aVGLW
p163
aVCTVA
p164
aVCOST
p165
aVCOTY
p166
aVCCI
p167
aVCSX
p168
aVCMI
p169
aVCVS
p170
aVDHI
p171
aVDHR
p172
aVDRI
p173
aVDVA
p174
aVDE
p175
aVDAL
p176
aVXRAY
p177
aVDVN
p178
aVFANG
p179
aVDLR
p180
aVDFS
p181
aVDISCA
p182
aVDISCK
p183
aVDISH
p184
aVDG
p185
aVDLTR
p186
aVD
p187
aVDOV
p188
aVDOW
p189
aVDTE
p190
aVDUK
p191
aVDRE
p192
aVDD
p193
aVDXC
p194
aVETFC
p195
aVEMN
p196
aVETN
p197
aVEBAY
p198
aVECL
p199
aVEIX
p200
aVEW
p201
aVEA
p202
aVEMR
p203
aVETR
p204
aVEOG
p205
aVEFX
p206
aVEQIX
p207
aVEQR
p208
aVESS
p209
aVEL
p210
aVEVRG
p211
aVES
p212
aVRE
p213
aVEXC
p214
aVEXPE
p215
aVEXPD
p216
aVEXR
p217
aVXOM
p218
aVFFIV
p219
aVFB
p220
aVFAST
p221
aVFRT
p222
aVFDX
p223
aVFIS
p224
aVFITB
p225
aVFE
p226
aVFRC
p227
aVFISV
p228
aVFLT
p229
aVFLIR
p230
aVFLS
p231
aVFMC
p232
aVFL
p233
aVF
p234
aVFTNT
p235
aVFTV
p236
aVFBHS
p237
aVFOXA
p238
aVFOX
p239
aVBEN
p240
aVFCX
p241
aVGPS
p242
aVGRMN
p243
aVIT
p244
aVGD
p245
aVGE
p246
aVGIS
p247
aVGM
p248
aVGPC
p249
aVGILD
p250
aVGPN
p251
aVGS
p252
aVGWW
p253
aVHAL
p254
aVHBI
p255
aVHOG
p256
aVHIG
p257
aVHAS
p258
aVHCA
p259
aVHCP
p260
aVHP
p261
aVHSIC
p262
aVHSY
p263
aVHES
p264
aVHPE
p265
aVHLT
p266
aVHFC
p267
aVHOLX
p268
aVHD
p269
aVHON
p270
aVHRL
p271
aVHST
p272
aVHPQ
p273
aVHUM
p274
aVHBAN
p275
aVHII
p276
aVIDXX
p277
aVINFO
p278
aVITW
p279
aVILMN
p280
aVIR
p281
aVINTC
p282
aVICE
p283
aVIBM
p284
aVINCY
p285
aVIP
p286
aVIPG
p287
aVIFF
p288
aVINTU
p289
aVISRG
p290
aVIVZ
p291
aVIPGP
p292
aVIQV
p293
aVIRM
p294
aVJKHY
p295
aVJEC
p296
aVJBHT
p297
aVJEF
p298
aVSJM
p299
aVJNJ
p300
aVJCI
p301
aVJPM
p302
aVJNPR
p303
aVKSU
p304
aVK
p305
aVKEY
p306
aVKEYS
p307
aVKMB
p308
aVKIM
p309
aVKMI
p310
aVKLAC
p311
aVKSS
p312
aVKHC
p313
aVKR
p314
aVLB
p315
aVLHX
p316
aVLH
p317
aVLRCX
p318
aVLW
p319
aVLEG
p320
aVLEN
p321
aVLLY
p322
aVLNC
p323
aVLIN
p324
aVLKQ
p325
aVLMT
p326
aVL
p327
aVLOW
p328
aVLYB
p329
aVMTB
p330
aVMAC
p331
aVM
p332
aVMRO
p333
aVMPC
p334
aVMKTX
p335
aVMAR
p336
aVMMC
p337
aVMLM
p338
aVMAS
p339
aVMA
p340
aVMKC
p341
aVMXIM
p342
aVMCD
p343
aVMCK
p344
aVMDT
p345
aVMRK
p346
aVMET
p347
aVMTD
p348
aVMGM
p349
aVMCHP
p350
aVMU
p351
aVMSFT
p352
aVMAA
p353
aVMHK
p354
aVTAP
p355
aVMDLZ
p356
aVMNST
p357
aVMCO
p358
aVMS
p359
aVMOS
p360
aVMSI
p361
aVMSCI
p362
aVMYL
p363
aVNDAQ
p364
aVNOV
p365
aVNKTR
p366
aVNTAP
p367
aVNFLX
p368
aVNWL
p369
aVNEM
p370
aVNWSA
p371
aVNWS
p372
aVNEE
p373
aVNLSN
p374
aVNKE
p375
aVNI
p376
aVNBL
p377
aVJWN
p378
aVNSC
p379
aVNTRS
p380
aVNOC
p381
aVNCLH
p382
aVNRG
p383
aVNUE
p384
aVNVDA
p385
aVORLY
p386
aVOXY
p387
aVOMC
p388
aVOKE
p389
aVORCL
p390
aVPCAR
p391
aVPKG
p392
aVPH
p393
aVPAYX
p394
aVPYPL
p395
aVPNR
p396
aVPBCT
p397
aVPEP
p398
aVPKI
p399
aVPRGO
p400
aVPFE
p401
aVPM
p402
aVPSX
p403
aVPNW
p404
aVPXD
p405
aVPNC
p406
aVPPG
p407
aVPPL
p408
aVPFG
p409
aVPG
p410
aVPGR
p411
aVPLD
p412
aVPRU
p413
aVPEG
p414
aVPSA
p415
aVPHM
p416
aVPVH
p417
aVQRVO
p418
aVPWR
p419
aVQCOM
p420
aVDGX
p421
aVRL
p422
aVRJF
p423
aVRTN
p424
aVO
p425
aVREG
p426
aVREGN
p427
aVRF
p428
aVRSG
p429
aVRMD
p430
aVRHI
p431
aVROK
p432
aVROL
p433
aVROP
p434
aVROST
p435
aVRCL
p436
aVCRM
p437
aVSBAC
p438
aVSLB
p439
aVSTX
p440
aVSEE
p441
aVSRE
p442
aVSHW
p443
aVSPG
p444
aVSWKS
p445
aVSLG
p446
aVSNA
p447
aVSO
p448
aVLUV
p449
aVSPGI
p450
aVSWK
p451
aVSBUX
p452
aVSTT
p453
aVSYK
p454
aVSTI
p455
aVSIVB
p456
aVSYMC
p457
aVSYF
p458
aVSNPS
p459
aVSYY
p460
aVTMUS
p461
aVTROW
p462
aVTTWO
p463
aVTPR
p464
aVTGT
p465
aVTEL
p466
aVFTI
p467
aVTFX
p468
aVTXN
p469
aVTXT
p470
aVTMO
p471
aVTIF
p472
aVTWTR
p473
aVTJX
p474
aVTMK
p475
aVTSS
p476
aVTSCO
p477
aVTDG
p478
aVTRV
p479
aVTRIP
p480
aVTSN
p481
aVUDR
p482
aVULTA
p483
aVUSB
p484
aVUAA
p485
aVUA
p486
aVUNP
p487
aVUAL
p488
aVUNH
p489
aVUPS
p490
aVURI
p491
aVUTX
p492
aVUHS
p493
aVUNM
p494
aVVFC
p495
aVVLO
p496
aVVAR
p497
aVVTR
p498
aVVRSN
p499
aVVRSK
p500
aVVZ
p501
aVVRTX
p502
aVVIAB
p503
aVV
p504
aVVNO
p505
aVVMC
p506
aVWAB
p507
aVWMT
p508
aVWBA
p509
aVDIS
p510
aVWM
p511
aVWAT
p512
aVWEC
p513
aVWCG
p514
aVWFC
p515
aVWELL
p516
aVWDC
p517
aVWU
p518
aVWRK
p519
aVWY
p520
aVWHR
p521
aVWMB
p522
aVWLTW
p523
aVWYNN
p524
aVXEL
p525
aVXRX
p526
aVXLNX
p527
aVXYL
p528
aVYUM
p529
aVZBH
p530
aVZION
p531
aVZTS
p532
a.