(lp0
VSYMC
p1
aVINTC
p2
aVAAPL
p3
aVMSFT
p4
aVNKTR
p5
aVSIRI
p6
aVCSCO
p7
aVCMCSA
p8
aVFCEL
p9
aVOSTK
p10
aVATVI
p11
aVQCOM
p12
aVNVDA
p13
aVAMGN
p14
aVMRVL
p15
aVENDP
p16
aVMYL
p17
aVEBAY
p18
aVTRUE
p19
aVBBBY
p20
aVNFLX
p21
aVAMAT
p22
aVGILD
p23
aVWMGI
p24
aVSBUX
p25
aVCRZO
p26
aVNWSA
p27
aVPTEN
p28
aVHBAN
p29
aVFLEX
p30
aVXLNX
p31
aVGPOR
p32
aVLBTYK
p33
aVFISV
p34
aVLXRX
p35
aVMDRX
p36
aVFITB
p37
aVDVAX
p38
aVCTSH
p39
aVGPRO
p40
aVMMM
p41
aVABT
p42
aVABBV
p43
aVABMD
p44
aVACN
p45
aVATVI
p46
aVADBE
p47
aVAMD
p48
aVAAP
p49
aVAES
p50
aVAMG
p51
aVAFL
p52
aVA
p53
aVAPD
p54
aVAKAM
p55
aVALK
p56
aVALB
p57
aVARE
p58
aVALXN
p59
aVALGN
p60
aVALLE
p61
aVAGN
p62
aVADS
p63
aVLNT
p64
aVALL
p65
aVGOOGL
p66
aVGOOG
p67
aVMO
p68
aVAMZN
p69
aVAMCR
p70
aVAEE
p71
aVAAL
p72
aVAEP
p73
aVAXP
p74
aVAIG
p75
aVAMT
p76
aVAWK
p77
aVAMP
p78
aVABC
p79
aVAME
p80
aVAMGN
p81
aVAPH
p82
aVAPC
p83
aVADI
p84
aVANSS
p85
aVANTM
p86
aVAON
p87
aVAOS
p88
aVAPA
p89
aVAIV
p90
aVAAPL
p91
aVAMAT
p92
aVAPTV
p93
aVADM
p94
aVARNC
p95
aVANET
p96
aVAJG
p97
aVAIZ
p98
aVATO
p99
aVT
p100
aVADSK
p101
aVADP
p102
aVAZO
p103
aVAVB
p104
aVAVY
p105
aVBHGE
p106
aVBLL
p107
aVBAC
p108
aVBK
p109
aVBAX
p110
aVBBT
p111
aVBDX
p112
aVBRK-B
p113
aVBBY
p114
aVBIIB
p115
aVBLK
p116
aVHRB
p117
aVBA
p118
aVBKNG
p119
aVBWA
p120
aVBXP
p121
aVBSX
p122
aVBMY
p123
aVAVGO
p124
aVBR
p125
aVBF-B
p126
aVCHRW
p127
aVCOG
p128
aVCDNS
p129
aVCPB
p130
aVCOF
p131
aVCPRI
p132
aVCAH
p133
aVKMX
p134
aVCCL
p135
aVCAT
p136
aVCBOE
p137
aVCBRE
p138
aVCBS
p139
aVCE
p140
aVCELG
p141
aVCNC
p142
aVCNP
p143
aVCTL
p144
aVCERN
p145
aVCF
p146
aVSCHW
p147
aVCHTR
p148
aVCVX
p149
aVCMG
p150
aVCB
p151
aVCHD
p152
aVCI
p153
aVXEC
p154
aVCINF
p155
aVCTAS
p156
aVCSCO
p157
aVC
p158
aVCFG
p159
aVCTXS
p160
aVCLX
p161
aVCME
p162
aVCMS
p163
aVKO
p164
aVCTSH
p165
aVCL
p166
aVCMCSA
p167
aVCMA
p168
aVCAG
p169
aVCXO
p170
aVCOP
p171
aVED
p172
aVSTZ
p173
aVCOO
p174
aVCPRT
p175
aVGLW
p176
aVCTVA
p177
aVCOST
p178
aVCOTY
p179
aVCCI
p180
aVCSX
p181
aVCMI
p182
aVCVS
p183
aVDHI
p184
aVDHR
p185
aVDRI
p186
aVDVA
p187
aVDE
p188
aVDAL
p189
aVXRAY
p190
aVDVN
p191
aVFANG
p192
aVDLR
p193
aVDFS
p194
aVDISCA
p195
aVDISCK
p196
aVDISH
p197
aVDG
p198
aVDLTR
p199
aVD
p200
aVDOV
p201
aVDOW
p202
aVDTE
p203
aVDUK
p204
aVDRE
p205
aVDD
p206
aVDXC
p207
aVETFC
p208
aVEMN
p209
aVETN
p210
aVEBAY
p211
aVECL
p212
aVEIX
p213
aVEW
p214
aVEA
p215
aVEMR
p216
aVETR
p217
aVEOG
p218
aVEFX
p219
aVEQIX
p220
aVEQR
p221
aVESS
p222
aVEL
p223
aVEVRG
p224
aVES
p225
aVRE
p226
aVEXC
p227
aVEXPE
p228
aVEXPD
p229
aVEXR
p230
aVXOM
p231
aVFFIV
p232
aVFB
p233
aVFAST
p234
aVFRT
p235
aVFDX
p236
aVFIS
p237
aVFITB
p238
aVFE
p239
aVFRC
p240
aVFISV
p241
aVFLT
p242
aVFLIR
p243
aVFLS
p244
aVFMC
p245
aVFL
p246
aVF
p247
aVFTNT
p248
aVFTV
p249
aVFBHS
p250
aVFOXA
p251
aVFOX
p252
aVBEN
p253
aVFCX
p254
aVGPS
p255
aVGRMN
p256
aVIT
p257
aVGD
p258
aVGE
p259
aVGIS
p260
aVGM
p261
aVGPC
p262
aVGILD
p263
aVGPN
p264
aVGS
p265
aVGWW
p266
aVHAL
p267
aVHBI
p268
aVHOG
p269
aVHIG
p270
aVHAS
p271
aVHCA
p272
aVHCP
p273
aVHP
p274
aVHSIC
p275
aVHSY
p276
aVHES
p277
aVHPE
p278
aVHLT
p279
aVHFC
p280
aVHOLX
p281
aVHD
p282
aVHON
p283
aVHRL
p284
aVHST
p285
aVHPQ
p286
aVHUM
p287
aVHBAN
p288
aVHII
p289
aVIDXX
p290
aVINFO
p291
aVITW
p292
aVILMN
p293
aVIR
p294
aVINTC
p295
aVICE
p296
aVIBM
p297
aVINCY
p298
aVIP
p299
aVIPG
p300
aVIFF
p301
aVINTU
p302
aVISRG
p303
aVIVZ
p304
aVIPGP
p305
aVIQV
p306
aVIRM
p307
aVJKHY
p308
aVJEC
p309
aVJBHT
p310
aVJEF
p311
aVSJM
p312
aVJNJ
p313
aVJCI
p314
aVJPM
p315
aVJNPR
p316
aVKSU
p317
aVK
p318
aVKEY
p319
aVKEYS
p320
aVKMB
p321
aVKIM
p322
aVKMI
p323
aVKLAC
p324
aVKSS
p325
aVKHC
p326
aVKR
p327
aVLB
p328
aVLHX
p329
aVLH
p330
aVLRCX
p331
aVLW
p332
aVLEG
p333
aVLEN
p334
aVLLY
p335
aVLNC
p336
aVLIN
p337
aVLKQ
p338
aVLMT
p339
aVL
p340
aVLOW
p341
aVLYB
p342
aVMTB
p343
aVMAC
p344
aVM
p345
aVMRO
p346
aVMPC
p347
aVMKTX
p348
aVMAR
p349
aVMMC
p350
aVMLM
p351
aVMAS
p352
aVMA
p353
aVMKC
p354
aVMXIM
p355
aVMCD
p356
aVMCK
p357
aVMDT
p358
aVMRK
p359
aVMET
p360
aVMTD
p361
aVMGM
p362
aVMCHP
p363
aVMU
p364
aVMSFT
p365
aVMAA
p366
aVMHK
p367
aVTAP
p368
aVMDLZ
p369
aVMNST
p370
aVMCO
p371
aVMS
p372
aVMOS
p373
aVMSI
p374
aVMSCI
p375
aVMYL
p376
aVNDAQ
p377
aVNOV
p378
aVNKTR
p379
aVNTAP
p380
aVNFLX
p381
aVNWL
p382
aVNEM
p383
aVNWSA
p384
aVNWS
p385
aVNEE
p386
aVNLSN
p387
aVNKE
p388
aVNI
p389
aVNBL
p390
aVJWN
p391
aVNSC
p392
aVNTRS
p393
aVNOC
p394
aVNCLH
p395
aVNRG
p396
aVNUE
p397
aVNVDA
p398
aVORLY
p399
aVOXY
p400
aVOMC
p401
aVOKE
p402
aVORCL
p403
aVPCAR
p404
aVPKG
p405
aVPH
p406
aVPAYX
p407
aVPYPL
p408
aVPNR
p409
aVPBCT
p410
aVPEP
p411
aVPKI
p412
aVPRGO
p413
aVPFE
p414
aVPM
p415
aVPSX
p416
aVPNW
p417
aVPXD
p418
aVPNC
p419
aVPPG
p420
aVPPL
p421
aVPFG
p422
aVPG
p423
aVPGR
p424
aVPLD
p425
aVPRU
p426
aVPEG
p427
aVPSA
p428
aVPHM
p429
aVPVH
p430
aVQRVO
p431
aVPWR
p432
aVQCOM
p433
aVDGX
p434
aVRL
p435
aVRJF
p436
aVRTN
p437
aVO
p438
aVREG
p439
aVREGN
p440
aVRF
p441
aVRSG
p442
aVRMD
p443
aVRHI
p444
aVROK
p445
aVROL
p446
aVROP
p447
aVROST
p448
aVRCL
p449
aVCRM
p450
aVSBAC
p451
aVSLB
p452
aVSTX
p453
aVSEE
p454
aVSRE
p455
aVSHW
p456
aVSPG
p457
aVSWKS
p458
aVSLG
p459
aVSNA
p460
aVSO
p461
aVLUV
p462
aVSPGI
p463
aVSWK
p464
aVSBUX
p465
aVSTT
p466
aVSYK
p467
aVSTI
p468
aVSIVB
p469
aVSYMC
p470
aVSYF
p471
aVSNPS
p472
aVSYY
p473
aVTMUS
p474
aVTROW
p475
aVTTWO
p476
aVTPR
p477
aVTGT
p478
aVTEL
p479
aVFTI
p480
aVTFX
p481
aVTXN
p482
aVTXT
p483
aVTMO
p484
aVTIF
p485
aVTWTR
p486
aVTJX
p487
aVTMK
p488
aVTSS
p489
aVTSCO
p490
aVTDG
p491
aVTRV
p492
aVTRIP
p493
aVTSN
p494
aVUDR
p495
aVULTA
p496
aVUSB
p497
aVUAA
p498
aVUA
p499
aVUNP
p500
aVUAL
p501
aVUNH
p502
aVUPS
p503
aVURI
p504
aVUTX
p505
aVUHS
p506
aVUNM
p507
aVVFC
p508
aVVLO
p509
aVVAR
p510
aVVTR
p511
aVVRSN
p512
aVVRSK
p513
aVVZ
p514
aVVRTX
p515
aVVIAB
p516
aVV
p517
aVVNO
p518
aVVMC
p519
aVWAB
p520
aVWMT
p521
aVWBA
p522
aVDIS
p523
aVWM
p524
aVWAT
p525
aVWEC
p526
aVWCG
p527
aVWFC
p528
aVWELL
p529
aVWDC
p530
aVWU
p531
aVWRK
p532
aVWY
p533
aVWHR
p534
aVWMB
p535
aVWLTW
p536
aVWYNN
p537
aVXEL
p538
aVXRX
p539
aVXLNX
p540
aVXYL
p541
aVYUM
p542
aVZBH
p543
aVZION
p544
aVZTS
p545
a.